; ModuleID = 'source-C-CXX/56/2788.c'
source_filename = "source-C-CXX/56/2788.c"
target datalayout = "e-m:e-p270:32:32-p271:32:32-p272:64:64-i64:64-f80:128-n8:16:32:64-S128"
target triple = "x86_64-pc-linux-gnu"

@.str = private unnamed_addr constant [3 x i8] c"%d\00", align 1
@.str.1 = private unnamed_addr constant [3 x i8] c"%s\00", align 1

; Function Attrs: nofree nounwind sspstrong uwtable
define dso_local void @main() local_unnamed_addr #0 {
  %1 = alloca [50 x [100 x i8]], align 16
  %2 = alloca [50 x [100 x i8]], align 16
  %3 = alloca [50 x [100 x i8]], align 16
  %4 = alloca i32, align 4
  %5 = getelementptr inbounds [50 x [100 x i8]], [50 x [100 x i8]]* %1, i64 0, i64 0, i64 0
  call void @llvm.lifetime.start.p0i8(i64 5000, i8* nonnull %5) #7
  %6 = getelementptr inbounds [50 x [100 x i8]], [50 x [100 x i8]]* %2, i64 0, i64 0, i64 0
  call void @llvm.lifetime.start.p0i8(i64 5000, i8* nonnull %6) #7
  call void @llvm.memset.p0i8.i64(i8* noundef nonnull align 16 dereferenceable(5000) %6, i8 0, i64 5000, i1 false)
  %7 = getelementptr inbounds [50 x [100 x i8]], [50 x [100 x i8]]* %3, i64 0, i64 0, i64 0
  call void @llvm.lifetime.start.p0i8(i64 5000, i8* nonnull %7) #7
  call void @llvm.memset.p0i8.i64(i8* noundef nonnull align 16 dereferenceable(5000) %7, i8 0, i64 5000, i1 false)
  %8 = bitcast i32* %4 to i8*
  call void @llvm.lifetime.start.p0i8(i64 4, i8* nonnull %8) #7
  %9 = call i32 (i8*, ...) @__isoc99_scanf(i8* getelementptr inbounds ([3 x i8], [3 x i8]* @.str, i64 0, i64 0), i32* nonnull %4)
  %10 = load i32, i32* %4, align 4, !tbaa !5
  %11 = icmp sgt i32 %10, 0
  br i1 %11, label %16, label %71

12:                                               ; preds = %16
  %13 = icmp sgt i32 %21, 0
  br i1 %13, label %14, label %71

14:                                               ; preds = %12
  %15 = zext i32 %21 to i64
  br label %25

16:                                               ; preds = %0, %16
  %17 = phi i64 [ %20, %16 ], [ 0, %0 ]
  %18 = getelementptr inbounds [50 x [100 x i8]], [50 x [100 x i8]]* %1, i64 0, i64 %17, i64 0
  %19 = call i32 (i8*, ...) @__isoc99_scanf(i8* getelementptr inbounds ([3 x i8], [3 x i8]* @.str.1, i64 0, i64 0), i8* nonnull %18)
  %20 = add nuw nsw i64 %17, 1
  %21 = load i32, i32* %4, align 4, !tbaa !5
  %22 = sext i32 %21 to i64
  %23 = icmp slt i64 %20, %22
  br i1 %23, label %16, label %12, !llvm.loop !9

24:                                               ; preds = %60
  br i1 %13, label %63, label %71

25:                                               ; preds = %14, %60
  %26 = phi i64 [ 0, %14 ], [ %61, %60 ]
  %27 = getelementptr inbounds [50 x [100 x i8]], [50 x [100 x i8]]* %1, i64 0, i64 %26, i64 0
  %28 = call i64 @strlen(i8* noundef nonnull %27) #8
  %29 = getelementptr inbounds [50 x [100 x i8]], [50 x [100 x i8]]* %2, i64 0, i64 %26, i64 0
  %30 = call i8* @strcpy(i8* noundef nonnull %29, i8* noundef nonnull %27) #7
  %31 = shl i64 %28, 32
  %32 = add i64 %31, -8589934592
  %33 = ashr exact i64 %32, 32
  %34 = getelementptr inbounds [50 x [100 x i8]], [50 x [100 x i8]]* %2, i64 0, i64 %26, i64 %33
  store i8 101, i8* %34, align 1, !tbaa !11
  %35 = add i64 %31, -4294967296
  %36 = ashr exact i64 %35, 32
  %37 = getelementptr inbounds [50 x [100 x i8]], [50 x [100 x i8]]* %2, i64 0, i64 %26, i64 %36
  store i8 114, i8* %37, align 1, !tbaa !11
  %38 = call i32 @strcmp(i8* noundef nonnull %27, i8* noundef nonnull %29) #8
  %39 = icmp eq i32 %38, 0
  br i1 %39, label %40, label %43

40:                                               ; preds = %25
  %41 = getelementptr inbounds [50 x [100 x i8]], [50 x [100 x i8]]* %3, i64 0, i64 %26, i64 0
  %42 = call i8* @strncpy(i8* noundef nonnull %41, i8* nonnull %27, i64 %33) #7
  br label %43

43:                                               ; preds = %40, %25
  %44 = call i8* @strcpy(i8* noundef nonnull %29, i8* noundef nonnull %27) #7
  store i8 108, i8* %34, align 1, !tbaa !11
  store i8 121, i8* %37, align 1, !tbaa !11
  %45 = call i32 @strcmp(i8* noundef nonnull %27, i8* noundef nonnull %29) #8
  %46 = icmp eq i32 %45, 0
  br i1 %46, label %47, label %50

47:                                               ; preds = %43
  %48 = getelementptr inbounds [50 x [100 x i8]], [50 x [100 x i8]]* %3, i64 0, i64 %26, i64 0
  %49 = call i8* @strncpy(i8* noundef nonnull %48, i8* nonnull %27, i64 %33) #7
  br label %50

50:                                               ; preds = %47, %43
  %51 = call i8* @strcpy(i8* noundef nonnull %29, i8* noundef nonnull %27) #7
  %52 = add i64 %31, -12884901888
  %53 = ashr exact i64 %52, 32
  %54 = getelementptr inbounds [50 x [100 x i8]], [50 x [100 x i8]]* %2, i64 0, i64 %26, i64 %53
  store i8 105, i8* %54, align 1, !tbaa !11
  store i8 110, i8* %34, align 1, !tbaa !11
  store i8 103, i8* %37, align 1, !tbaa !11
  %55 = call i32 @strcmp(i8* noundef nonnull %27, i8* noundef nonnull %29) #8
  %56 = icmp eq i32 %55, 0
  br i1 %56, label %57, label %60

57:                                               ; preds = %50
  %58 = getelementptr inbounds [50 x [100 x i8]], [50 x [100 x i8]]* %3, i64 0, i64 %26, i64 0
  %59 = call i8* @strncpy(i8* noundef nonnull %58, i8* nonnull %27, i64 %53) #7
  br label %60

60:                                               ; preds = %50, %57
  %61 = add nuw nsw i64 %26, 1
  %62 = icmp eq i64 %61, %15
  br i1 %62, label %24, label %25, !llvm.loop !12

63:                                               ; preds = %24, %63
  %64 = phi i64 [ %67, %63 ], [ 0, %24 ]
  %65 = getelementptr inbounds [50 x [100 x i8]], [50 x [100 x i8]]* %3, i64 0, i64 %64, i64 0
  %66 = call i32 @puts(i8* nonnull %65)
  %67 = add nuw nsw i64 %64, 1
  %68 = load i32, i32* %4, align 4, !tbaa !5
  %69 = sext i32 %68 to i64
  %70 = icmp slt i64 %67, %69
  br i1 %70, label %63, label %71, !llvm.loop !13

71:                                               ; preds = %63, %12, %0, %24
  call void @llvm.lifetime.end.p0i8(i64 4, i8* nonnull %8) #7
  call void @llvm.lifetime.end.p0i8(i64 5000, i8* nonnull %7) #7
  call void @llvm.lifetime.end.p0i8(i64 5000, i8* nonnull %6) #7
  call void @llvm.lifetime.end.p0i8(i64 5000, i8* nonnull %5) #7
  ret void
}

; Function Attrs: argmemonly mustprogress nofree nosync nounwind willreturn
declare void @llvm.lifetime.start.p0i8(i64 immarg, i8* nocapture) #1

; Function Attrs: argmemonly mustprogress nofree nounwind willreturn writeonly
declare void @llvm.memset.p0i8.i64(i8* nocapture writeonly, i8, i64, i1 immarg) #2

; Function Attrs: nofree nounwind
declare noundef i32 @__isoc99_scanf(i8* nocapture noundef readonly, ...) local_unnamed_addr #3

; Function Attrs: argmemonly mustprogress nofree nounwind readonly willreturn
declare i64 @strlen(i8* nocapture) local_unnamed_addr #4

; Function Attrs: argmemonly mustprogress nofree nounwind willreturn
declare i8* @strcpy(i8* noalias returned writeonly, i8* noalias nocapture readonly) local_unnamed_addr #5

; Function Attrs: argmemonly mustprogress nofree nounwind readonly willreturn
declare i32 @strcmp(i8* nocapture, i8* nocapture) local_unnamed_addr #4

; Function Attrs: argmemonly mustprogress nofree nounwind willreturn
declare i8* @strncpy(i8* noalias returned writeonly, i8* noalias nocapture readonly, i64) local_unnamed_addr #5

; Function Attrs: argmemonly mustprogress nofree nosync nounwind willreturn
declare void @llvm.lifetime.end.p0i8(i64 immarg, i8* nocapture) #1

; Function Attrs: nofree nounwind
declare noundef i32 @puts(i8* nocapture noundef readonly) local_unnamed_addr #6


!llvm.module.flags = !{!0, !1, !2, !3}
!llvm.ident = !{!4}

!0 = !{i32 1, !"wchar_size", i32 4}
!1 = !{i32 7, !"PIC Level", i32 2}
!2 = !{i32 7, !"PIE Level", i32 2}
!3 = !{i32 7, !"uwtable", i32 1}
!4 = !{!"clang version 13.0.0"}
!5 = !{!6, !6, i64 0}
!6 = !{!"int", !7, i64 0}
!7 = !{!"omnipotent char", !8, i64 0}
!8 = !{!"Simple C/C++ TBAA"}
!9 = distinct !{!9, !10}
!10 = !{!"llvm.loop.mustprogress"}
!11 = !{!7, !7, i64 0}
!12 = distinct !{!12, !10}
!13 = distinct !{!13, !10}
